; ModuleID = '19/2152.c'
source_filename = "19/2152.c"
target datalayout = "e-m:e-p270:32:32-p271:32:32-p272:64:64-i64:64-f80:128-n8:16:32:64-S128"
target triple = "x86_64-pc-linux-gnu"

@.str = private unnamed_addr constant [6 x i8] c"%s %s\00", align 1
@.str.1 = private unnamed_addr constant [4 x i8] c"%s \00", align 1
@.str.2 = private unnamed_addr constant [4 x i8] c"%s\0A\00", align 1

; Function Attrs: noinline nounwind uwtable
define dso_local i32 @main() #0 {
  %1 = alloca i32, align 4
  %2 = alloca [2000 x i8], align 16
  %3 = alloca [200 x i8], align 16
  %4 = alloca [200 x i8], align 16
  %5 = alloca [200 x [20 x i8]], align 16
  %6 = alloca i32, align 4
  %7 = alloca i32, align 4
  %8 = alloca i32, align 4
  %9 = alloca i32, align 4
  store i32 0, i32* %1, align 4
  store i32 0, i32* %7, align 4
  store i32 0, i32* %8, align 4
  %10 = getelementptr inbounds [2000 x i8], [2000 x i8]* %2, i64 0, i64 0
  %11 = call i32 (i8*, ...) bitcast (i32 (...)* @gets to i32 (i8*, ...)*)(i8* %10)
  %12 = getelementptr inbounds [200 x i8], [200 x i8]* %3, i64 0, i64 0
  %13 = getelementptr inbounds [200 x i8], [200 x i8]* %4, i64 0, i64 0
  %14 = call i32 (i8*, ...) @__isoc99_scanf(i8* getelementptr inbounds ([6 x i8], [6 x i8]* @.str, i64 0, i64 0), i8* %12, i8* %13)
  %15 = getelementptr inbounds [2000 x i8], [2000 x i8]* %2, i64 0, i64 0
  %16 = call i64 @strlen(i8* %15) #3
  %17 = trunc i64 %16 to i32
  store i32 %17, i32* %9, align 4
  store i32 0, i32* %6, align 4
  br label %18

18:                                               ; preds = %52, %0
  %19 = load i32, i32* %6, align 4
  %20 = load i32, i32* %9, align 4
  %21 = icmp slt i32 %19, %20
  br i1 %21, label %22, label %55

22:                                               ; preds = %18
  %23 = load i32, i32* %6, align 4
  %24 = sext i32 %23 to i64
  %25 = getelementptr inbounds [2000 x i8], [2000 x i8]* %2, i64 0, i64 %24
  %26 = load i8, i8* %25, align 1
  %27 = sext i8 %26 to i32
  %28 = icmp ne i32 %27, 32
  br i1 %28, label %29, label %42

29:                                               ; preds = %22
  %30 = load i32, i32* %6, align 4
  %31 = sext i32 %30 to i64
  %32 = getelementptr inbounds [2000 x i8], [2000 x i8]* %2, i64 0, i64 %31
  %33 = load i8, i8* %32, align 1
  %34 = load i32, i32* %7, align 4
  %35 = sext i32 %34 to i64
  %36 = getelementptr inbounds [200 x [20 x i8]], [200 x [20 x i8]]* %5, i64 0, i64 %35
  %37 = load i32, i32* %8, align 4
  %38 = sext i32 %37 to i64
  %39 = getelementptr inbounds [20 x i8], [20 x i8]* %36, i64 0, i64 %38
  store i8 %33, i8* %39, align 1
  %40 = load i32, i32* %8, align 4
  %41 = add nsw i32 %40, 1
  store i32 %41, i32* %8, align 4
  br label %51

42:                                               ; preds = %22
  %43 = load i32, i32* %7, align 4
  %44 = sext i32 %43 to i64
  %45 = getelementptr inbounds [200 x [20 x i8]], [200 x [20 x i8]]* %5, i64 0, i64 %44
  %46 = load i32, i32* %8, align 4
  %47 = sext i32 %46 to i64
  %48 = getelementptr inbounds [20 x i8], [20 x i8]* %45, i64 0, i64 %47
  store i8 0, i8* %48, align 1
  %49 = load i32, i32* %7, align 4
  %50 = add nsw i32 %49, 1
  store i32 %50, i32* %7, align 4
  store i32 0, i32* %8, align 4
  br label %51

51:                                               ; preds = %42, %29
  br label %52

52:                                               ; preds = %51
  %53 = load i32, i32* %6, align 4
  %54 = add nsw i32 %53, 1
  store i32 %54, i32* %6, align 4
  br label %18

55:                                               ; preds = %18
  %56 = load i32, i32* %7, align 4
  %57 = sext i32 %56 to i64
  %58 = getelementptr inbounds [200 x [20 x i8]], [200 x [20 x i8]]* %5, i64 0, i64 %57
  %59 = load i32, i32* %8, align 4
  %60 = sext i32 %59 to i64
  %61 = getelementptr inbounds [20 x i8], [20 x i8]* %58, i64 0, i64 %60
  store i8 0, i8* %61, align 1
  store i32 0, i32* %6, align 4
  br label %62

62:                                               ; preds = %84, %55
  %63 = load i32, i32* %6, align 4
  %64 = load i32, i32* %7, align 4
  %65 = icmp slt i32 %63, %64
  br i1 %65, label %66, label %87

66:                                               ; preds = %62
  %67 = load i32, i32* %6, align 4
  %68 = sext i32 %67 to i64
  %69 = getelementptr inbounds [200 x [20 x i8]], [200 x [20 x i8]]* %5, i64 0, i64 %68
  %70 = getelementptr inbounds [20 x i8], [20 x i8]* %69, i64 0, i64 0
  %71 = getelementptr inbounds [200 x i8], [200 x i8]* %3, i64 0, i64 0
  %72 = call i32 @strcmp(i8* %70, i8* %71) #3
  %73 = icmp eq i32 %72, 0
  br i1 %73, label %74, label %77

74:                                               ; preds = %66
  %75 = getelementptr inbounds [200 x i8], [200 x i8]* %4, i64 0, i64 0
  %76 = call i32 (i8*, ...) @printf(i8* getelementptr inbounds ([4 x i8], [4 x i8]* @.str.1, i64 0, i64 0), i8* %75)
  br label %83

77:                                               ; preds = %66
  %78 = load i32, i32* %6, align 4
  %79 = sext i32 %78 to i64
  %80 = getelementptr inbounds [200 x [20 x i8]], [200 x [20 x i8]]* %5, i64 0, i64 %79
  %81 = getelementptr inbounds [20 x i8], [20 x i8]* %80, i64 0, i64 0
  %82 = call i32 (i8*, ...) @printf(i8* getelementptr inbounds ([4 x i8], [4 x i8]* @.str.1, i64 0, i64 0), i8* %81)
  br label %83

83:                                               ; preds = %77, %74
  br label %84

84:                                               ; preds = %83
  %85 = load i32, i32* %6, align 4
  %86 = add nsw i32 %85, 1
  store i32 %86, i32* %6, align 4
  br label %62

87:                                               ; preds = %62
  %88 = load i32, i32* %7, align 4
  %89 = sext i32 %88 to i64
  %90 = getelementptr inbounds [200 x [20 x i8]], [200 x [20 x i8]]* %5, i64 0, i64 %89
  %91 = getelementptr inbounds [20 x i8], [20 x i8]* %90, i64 0, i64 0
  %92 = getelementptr inbounds [200 x i8], [200 x i8]* %3, i64 0, i64 0
  %93 = call i32 @strcmp(i8* %91, i8* %92) #3
  %94 = icmp eq i32 %93, 0
  br i1 %94, label %95, label %98

95:                                               ; preds = %87
  %96 = getelementptr inbounds [200 x i8], [200 x i8]* %4, i64 0, i64 0
  %97 = call i32 (i8*, ...) @printf(i8* getelementptr inbounds ([4 x i8], [4 x i8]* @.str.2, i64 0, i64 0), i8* %96)
  br label %104

98:                                               ; preds = %87
  %99 = load i32, i32* %6, align 4
  %100 = sext i32 %99 to i64
  %101 = getelementptr inbounds [200 x [20 x i8]], [200 x [20 x i8]]* %5, i64 0, i64 %100
  %102 = getelementptr inbounds [20 x i8], [20 x i8]* %101, i64 0, i64 0
  %103 = call i32 (i8*, ...) @printf(i8* getelementptr inbounds ([4 x i8], [4 x i8]* @.str.2, i64 0, i64 0), i8* %102)
  br label %104

104:                                              ; preds = %98, %95
  ret i32 0
}

declare dso_local i32 @gets(...) #1

declare dso_local i32 @__isoc99_scanf(i8*, ...) #1

; Function Attrs: nounwind readonly
declare dso_local i64 @strlen(i8*) #2

; Function Attrs: nounwind readonly
declare dso_local i32 @strcmp(i8*, i8*) #2

declare dso_local i32 @printf(i8*, ...) #1


!llvm.module.flags = !{!0}
!llvm.ident = !{!1}

!0 = !{i32 1, !"wchar_size", i32 4}
!1 = !{!"clang version 10.0.0-4ubuntu1 "}
